; Function Attrs: mustprogress nofree norecurse nosync nounwind willreturn memory(read, inaccessiblemem: none) uwtable
define internal fastcc i32 @avifEncoderDataShouldForceKeyframeForAlpha(ptr nocapture noundef readonly %0, ptr nocapture noundef readonly %1, i32 noundef %2) unnamed_addr #8 {
  %4 = getelementptr inbounds nuw i8, ptr %0, i64 508
  %5 = load i32, ptr %4, align 4
  %.not = icmp ne i32 %5, 0
  %6 = and i32 %2, 2
  %.not11 = icmp eq i32 %6, 0
  %or.cond = and i1 %.not11, %.not
  br i1 %or.cond, label %7, label %23

7:                                                ; preds = %3
  %8 = getelementptr inbounds i8, ptr %0, i64 36
  %9 = load i32, ptr %8, align 4
  %10 = icmp eq i32 %9, 0
  br i1 %10, label %23, label %11

11:                                               ; preds = %7
  %12 = getelementptr inbounds nuw i8, ptr %1, i64 16
  %13 = load ptr, ptr %12, align 8
  %14 = getelementptr inbounds nuw i8, ptr %13, i64 12
  %15 = load i32, ptr %14, align 4
  %16 = add i32 %9, 1
  %.not12 = icmp eq i32 %16, %15
  br i1 %.not12, label %17, label %23

17:                                               ; preds = %11
  %18 = load ptr, ptr %13, align 8
  %19 = add i32 %15, -1
  %20 = zext i32 %19 to i64
  %21 = getelementptr inbounds %struct.avifEncodeSample, ptr %18, i64 %20, i32 1
  %22 = load i32, ptr %21, align 8
  br label %23

23:                                               ; preds = %11, %7, %3, %17
  %.0 = phi i32 [ %22, %17 ], [ 0, %3 ], [ 0, %7 ], [ 0, %11 ]
  ret i32 %.0
}